target datalayout = "e-m:e-p270:32:32-p271:32:32-p272:64:64-i64:64-i128:128-f80:128-n8:16:32:64-S128"
target triple = "x86_64-pc-linux-gnu"

@.str.2 = private unnamed_addr constant [1 x i8] zeroinitializer, align 1
@.str.4 = private unnamed_addr constant [18 x i8] c"universal_newline\00", align 1
@.str.5 = private unnamed_addr constant [13 x i8] c"crlf_newline\00", align 1
@.str.6 = private unnamed_addr constant [11 x i8] c"cr_newline\00", align 1
@.str.7 = private unnamed_addr constant [11 x i8] c"lf_newline\00", align 1
@.str.77 = private unnamed_addr constant [15 x i8] c"xml_attr_quote\00", align 1
@.str.83 = private unnamed_addr constant [9 x i8] c"%s to %s\00", align 1
@.str.84 = private unnamed_addr constant [7 x i8] c" with \00", align 1
@.str.85 = private unnamed_addr constant [2 x i8] c",\00", align 1
@.str.86 = private unnamed_addr constant [9 x i8] c"xml_text\00", align 1
@.str.87 = private unnamed_addr constant [17 x i8] c"xml_attr_content\00", align 1
@.str.88 = private unnamed_addr constant [14 x i8] c"no-conversion\00", align 1

; Function Attrs: inlinehint nounwind sspstrong uwtable
define internal i64 @rbimpl_strlen(ptr noundef nonnull %0) #7 {
  %2 = alloca ptr, align 8
  store ptr %0, ptr %2, align 8, !tbaa !21
  %3 = load ptr, ptr %2, align 8, !tbaa !21
  %4 = call i64 @strlen(ptr noundef %3) #29
  ret i64 %4
}

; Function Attrs: inlinehint nounwind sspstrong uwtable
define internal i64 @rbimpl_str_cat_cstr(i64 noundef %0, ptr noundef nonnull %1) #7 {
  %3 = alloca i64, align 8
  %4 = alloca ptr, align 8
  %5 = alloca i64, align 8
  store i64 %0, ptr %3, align 8, !tbaa !12
  store ptr %1, ptr %4, align 8, !tbaa !21
  call void @llvm.lifetime.start.p0(i64 8, ptr %5) #25
  %6 = load ptr, ptr %4, align 8, !tbaa !21
  %7 = call i64 @rbimpl_strlen(ptr noundef %6)
  store i64 %7, ptr %5, align 8, !tbaa !12
  %8 = load i64, ptr %3, align 8, !tbaa !12
  %9 = load ptr, ptr %4, align 8, !tbaa !21
  %10 = load i64, ptr %5, align 8, !tbaa !12
  %11 = call i64 @rb_str_cat(i64 noundef %8, ptr noundef %9, i64 noundef %10)
  call void @llvm.lifetime.end.p0(i64 8, ptr %5) #25
  ret i64 %11
}

; Function Attrs: inlinehint nounwind sspstrong willreturn memory(none) uwtable
define internal zeroext i1 @RB_NIL_P(i64 noundef %0) #10 {
  %2 = alloca i64, align 8
  store i64 %0, ptr %2, align 8, !tbaa !12
  %3 = load i64, ptr %2, align 8, !tbaa !12
  %4 = icmp eq i64 %3, 4
  ret i1 %4
}

; Function Attrs: nounwind sspstrong uwtable
define internal i64 @econv_description(ptr noundef %0, ptr noundef %1, i32 noundef %2, i64 noundef %3) #0 {
  %5 = alloca ptr, align 8
  %6 = alloca ptr, align 8
  %7 = alloca i32, align 4
  %8 = alloca i64, align 8
  %9 = alloca i32, align 4
  %10 = alloca ptr, align 8
  store ptr %0, ptr %5, align 8, !tbaa !21
  store ptr %1, ptr %6, align 8, !tbaa !21
  store i32 %2, ptr %7, align 4, !tbaa !29
  store i64 %3, ptr %8, align 8, !tbaa !12
  call void @llvm.lifetime.start.p0(i64 4, ptr %9) #25
  store i32 0, ptr %9, align 4, !tbaa !29
  %11 = load i64, ptr %8, align 8, !tbaa !12
  %12 = call zeroext i1 @RB_NIL_P(i64 noundef %11) #31
  br i1 %12, label %13, label %15

13:                                               ; preds = %4
  %14 = call i64 @rb_str_new_static(ptr noundef null, i64 noundef 0)
  store i64 %14, ptr %8, align 8, !tbaa !12
  br label %15

15:                                               ; preds = %13, %4
  %16 = load ptr, ptr %5, align 8, !tbaa !21
  %17 = load i8, ptr %16, align 1, !tbaa !41
  %18 = sext i8 %17 to i32
  %19 = icmp ne i32 %18, 0
  br i1 %19, label %25, label %20

20:                                               ; preds = %15
  %21 = load ptr, ptr %6, align 8, !tbaa !21
  %22 = load i8, ptr %21, align 1, !tbaa !41
  %23 = sext i8 %22 to i32
  %24 = icmp ne i32 %23, 0
  br i1 %24, label %25, label %50

25:                                               ; preds = %20, %15
  %26 = load ptr, ptr %5, align 8, !tbaa !21
  %27 = load i8, ptr %26, align 1, !tbaa !41
  %28 = sext i8 %27 to i32
  %29 = icmp eq i32 %28, 0
  br i1 %29, label %30, label %34

30:                                               ; preds = %25
  %31 = load i64, ptr %8, align 8, !tbaa !12
  %32 = load ptr, ptr %6, align 8, !tbaa !21
  %33 = call i64 @rb_str_cat_cstr(i64 noundef %31, ptr noundef %32)
  br label %49

34:                                               ; preds = %25
  %35 = load ptr, ptr %6, align 8, !tbaa !21
  %36 = load i8, ptr %35, align 1, !tbaa !41
  %37 = sext i8 %36 to i32
  %38 = icmp eq i32 %37, 0
  br i1 %38, label %39, label %43

39:                                               ; preds = %34
  %40 = load i64, ptr %8, align 8, !tbaa !12
  %41 = load ptr, ptr %5, align 8, !tbaa !21
  %42 = call i64 @rb_str_cat_cstr(i64 noundef %40, ptr noundef %41)
  br label %48

43:                                               ; preds = %34
  %44 = load i64, ptr %8, align 8, !tbaa !12
  %45 = load ptr, ptr %5, align 8, !tbaa !21
  %46 = load ptr, ptr %6, align 8, !tbaa !21
  %47 = call i64 (i64, ptr, ...) @rb_str_catf(i64 noundef %44, ptr noundef @.str.83, ptr noundef %45, ptr noundef %46)
  br label %48

48:                                               ; preds = %43, %39
  br label %49

49:                                               ; preds = %48, %30
  store i32 1, ptr %9, align 4, !tbaa !29
  br label %50

50:                                               ; preds = %49, %20
  %51 = load i32, ptr %7, align 4, !tbaa !29
  %52 = and i32 %51, 1179392
  %53 = icmp ne i32 %52, 0
  br i1 %53, label %54, label %131

54:                                               ; preds = %50
  call void @llvm.lifetime.start.p0(i64 8, ptr %10) #25
  store ptr @.str.2, ptr %10, align 8, !tbaa !21
  %55 = load i32, ptr %9, align 4, !tbaa !29
  %56 = icmp ne i32 %55, 0
  br i1 %56, label %57, label %60

57:                                               ; preds = %54
  %58 = load i64, ptr %8, align 8, !tbaa !12
  %59 = call i64 @rbimpl_str_cat_cstr(i64 noundef %58, ptr noundef @.str.84)
  br label %60

60:                                               ; preds = %57, %54
  %61 = load i32, ptr %7, align 4, !tbaa !29
  %62 = and i32 %61, 256
  %63 = icmp ne i32 %62, 0
  br i1 %63, label %64, label %70

64:                                               ; preds = %60
  %65 = load i64, ptr %8, align 8, !tbaa !12
  %66 = load ptr, ptr %10, align 8, !tbaa !21
  %67 = call i64 @rb_str_cat_cstr(i64 noundef %65, ptr noundef %66)
  store ptr @.str.85, ptr %10, align 8, !tbaa !21
  %68 = load i64, ptr %8, align 8, !tbaa !12
  %69 = call i64 @rbimpl_str_cat_cstr(i64 noundef %68, ptr noundef @.str.4)
  br label %70

70:                                               ; preds = %64, %60
  %71 = load i32, ptr %7, align 4, !tbaa !29
  %72 = and i32 %71, 4096
  %73 = icmp ne i32 %72, 0
  br i1 %73, label %74, label %80

74:                                               ; preds = %70
  %75 = load i64, ptr %8, align 8, !tbaa !12
  %76 = load ptr, ptr %10, align 8, !tbaa !21
  %77 = call i64 @rb_str_cat_cstr(i64 noundef %75, ptr noundef %76)
  store ptr @.str.85, ptr %10, align 8, !tbaa !21
  %78 = load i64, ptr %8, align 8, !tbaa !12
  %79 = call i64 @rbimpl_str_cat_cstr(i64 noundef %78, ptr noundef @.str.5)
  br label %80

80:                                               ; preds = %74, %70
  %81 = load i32, ptr %7, align 4, !tbaa !29
  %82 = and i32 %81, 8192
  %83 = icmp ne i32 %82, 0
  br i1 %83, label %84, label %90

84:                                               ; preds = %80
  %85 = load i64, ptr %8, align 8, !tbaa !12
  %86 = load ptr, ptr %10, align 8, !tbaa !21
  %87 = call i64 @rb_str_cat_cstr(i64 noundef %85, ptr noundef %86)
  store ptr @.str.85, ptr %10, align 8, !tbaa !21
  %88 = load i64, ptr %8, align 8, !tbaa !12
  %89 = call i64 @rbimpl_str_cat_cstr(i64 noundef %88, ptr noundef @.str.6)
  br label %90

90:                                               ; preds = %84, %80
  %91 = load i32, ptr %7, align 4, !tbaa !29
  %92 = and i32 %91, 16384
  %93 = icmp ne i32 %92, 0
  br i1 %93, label %94, label %100

94:                                               ; preds = %90
  %95 = load i64, ptr %8, align 8, !tbaa !12
  %96 = load ptr, ptr %10, align 8, !tbaa !21
  %97 = call i64 @rb_str_cat_cstr(i64 noundef %95, ptr noundef %96)
  store ptr @.str.85, ptr %10, align 8, !tbaa !21
  %98 = load i64, ptr %8, align 8, !tbaa !12
  %99 = call i64 @rbimpl_str_cat_cstr(i64 noundef %98, ptr noundef @.str.7)
  br label %100

100:                                              ; preds = %94, %90
  %101 = load i32, ptr %7, align 4, !tbaa !29
  %102 = and i32 %101, 32768
  %103 = icmp ne i32 %102, 0
  br i1 %103, label %104, label %110

104:                                              ; preds = %100
  %105 = load i64, ptr %8, align 8, !tbaa !12
  %106 = load ptr, ptr %10, align 8, !tbaa !21
  %107 = call i64 @rb_str_cat_cstr(i64 noundef %105, ptr noundef %106)
  store ptr @.str.85, ptr %10, align 8, !tbaa !21
  %108 = load i64, ptr %8, align 8, !tbaa !12
  %109 = call i64 @rbimpl_str_cat_cstr(i64 noundef %108, ptr noundef @.str.86)
  br label %110

110:                                              ; preds = %104, %100
  %111 = load i32, ptr %7, align 4, !tbaa !29
  %112 = and i32 %111, 65536
  %113 = icmp ne i32 %112, 0
  br i1 %113, label %114, label %120

114:                                              ; preds = %110
  %115 = load i64, ptr %8, align 8, !tbaa !12
  %116 = load ptr, ptr %10, align 8, !tbaa !21
  %117 = call i64 @rb_str_cat_cstr(i64 noundef %115, ptr noundef %116)
  store ptr @.str.85, ptr %10, align 8, !tbaa !21
  %118 = load i64, ptr %8, align 8, !tbaa !12
  %119 = call i64 @rbimpl_str_cat_cstr(i64 noundef %118, ptr noundef @.str.87)
  br label %120

120:                                              ; preds = %114, %110
  %121 = load i32, ptr %7, align 4, !tbaa !29
  %122 = and i32 %121, 1048576
  %123 = icmp ne i32 %122, 0
  br i1 %123, label %124, label %130

124:                                              ; preds = %120
  %125 = load i64, ptr %8, align 8, !tbaa !12
  %126 = load ptr, ptr %10, align 8, !tbaa !21
  %127 = call i64 @rb_str_cat_cstr(i64 noundef %125, ptr noundef %126)
  store ptr @.str.85, ptr %10, align 8, !tbaa !21
  %128 = load i64, ptr %8, align 8, !tbaa !12
  %129 = call i64 @rbimpl_str_cat_cstr(i64 noundef %128, ptr noundef @.str.77)
  br label %130

130:                                              ; preds = %124, %120
  store i32 1, ptr %9, align 4, !tbaa !29
  call void @llvm.lifetime.end.p0(i64 8, ptr %10) #25
  br label %131

131:                                              ; preds = %130, %50
  %132 = load i32, ptr %9, align 4, !tbaa !29
  %133 = icmp ne i32 %132, 0
  br i1 %133, label %137, label %134

134:                                              ; preds = %131
  %135 = load i64, ptr %8, align 8, !tbaa !12
  %136 = call i64 @rbimpl_str_cat_cstr(i64 noundef %135, ptr noundef @.str.88)
  br label %137

137:                                              ; preds = %134, %131
  %138 = load i64, ptr %8, align 8, !tbaa !12
  call void @llvm.lifetime.end.p0(i64 4, ptr %9) #25
  ret i64 %138
}