; Function Attrs: nounwind sspstrong uwtable
define internal fastcc void @econv_description(ptr noundef %0, ptr noundef %1, i32 noundef %2, i64 noundef %3) unnamed_addr #0 {
  %5 = icmp eq i64 %3, 4
  br i1 %5, label %6, label %8

6:                                                ; preds = %4
  %7 = tail call i64 @rb_str_new_static(ptr noundef null, i64 noundef 0) #22
  br label %8

8:                                                ; preds = %6, %4
  %.047 = phi i64 [ %7, %6 ], [ %3, %4 ]
  %9 = load i8, ptr %0, align 1, !tbaa !27
  %.not = icmp eq i8 %9, 0
  %10 = load i8, ptr %1, align 1, !tbaa !27
  %.not48 = icmp eq i8 %10, 0
  br i1 %.not, label %11, label %14

11:                                               ; preds = %8
  br i1 %.not48, label %.thread59, label %12

12:                                               ; preds = %11
  %13 = tail call i64 @rb_str_cat_cstr(i64 noundef %.047, ptr noundef nonnull %1) #22
  br label %19

14:                                               ; preds = %8
  br i1 %.not48, label %15, label %17

15:                                               ; preds = %14
  %16 = tail call i64 @rb_str_cat_cstr(i64 noundef %.047, ptr noundef nonnull %0) #22
  br label %19

17:                                               ; preds = %14
  %18 = tail call i64 (i64, ptr, ...) @rb_str_catf(i64 noundef %.047, ptr noundef nonnull @.str.83, ptr noundef nonnull %0, ptr noundef nonnull %1) #22
  br label %19

19:                                               ; preds = %12, %17, %15
  %20 = and i32 %2, 1179392
  %.not49 = icmp eq i32 %20, 0
  br i1 %.not49, label %.thread66, label %22

.thread59:                                        ; preds = %11
  %21 = and i32 %2, 1179392
  %.not4962 = icmp eq i32 %21, 0
  br i1 %.not4962, label %58, label %.thread64

22:                                               ; preds = %19
  %23 = tail call i64 @rb_str_cat(i64 noundef %.047, ptr noundef nonnull @.str.84, i64 noundef 6) #22
  br label %.thread64

.thread64:                                        ; preds = %.thread59, %22
  %24 = and i32 %2, 256
  %.not51 = icmp eq i32 %24, 0
  br i1 %.not51, label %28, label %25

25:                                               ; preds = %.thread64
  %26 = tail call i64 @rb_str_cat_cstr(i64 noundef %.047, ptr noundef nonnull @.str.2) #22
  %27 = tail call i64 @rb_str_cat(i64 noundef %.047, ptr noundef nonnull @.str.4, i64 noundef 17) #22
  br label %28

28:                                               ; preds = %25, %.thread64
  %.0 = phi ptr [ @.str.85, %25 ], [ @.str.2, %.thread64 ]
  %29 = and i32 %2, 4096
  %.not52 = icmp eq i32 %29, 0
  br i1 %.not52, label %33, label %30

30:                                               ; preds = %28
  %31 = tail call i64 @rb_str_cat_cstr(i64 noundef %.047, ptr noundef nonnull %.0) #22
  %32 = tail call i64 @rb_str_cat(i64 noundef %.047, ptr noundef nonnull @.str.5, i64 noundef 12) #22
  br label %33

33:                                               ; preds = %30, %28
  %.1 = phi ptr [ @.str.85, %30 ], [ %.0, %28 ]
  %34 = and i32 %2, 8192
  %.not53 = icmp eq i32 %34, 0
  br i1 %.not53, label %38, label %35

35:                                               ; preds = %33
  %36 = tail call i64 @rb_str_cat_cstr(i64 noundef %.047, ptr noundef nonnull %.1) #22
  %37 = tail call i64 @rb_str_cat(i64 noundef %.047, ptr noundef nonnull @.str.6, i64 noundef 10) #22
  br label %38

38:                                               ; preds = %35, %33
  %.2 = phi ptr [ @.str.85, %35 ], [ %.1, %33 ]
  %39 = and i32 %2, 16384
  %.not54 = icmp eq i32 %39, 0
  br i1 %.not54, label %43, label %40

40:                                               ; preds = %38
  %41 = tail call i64 @rb_str_cat_cstr(i64 noundef %.047, ptr noundef %.2) #22
  %42 = tail call i64 @rb_str_cat(i64 noundef %.047, ptr noundef nonnull @.str.7, i64 noundef 10) #22
  br label %43

43:                                               ; preds = %40, %38
  %.3 = phi ptr [ @.str.85, %40 ], [ %.2, %38 ]
  %44 = and i32 %2, 32768
  %.not55 = icmp eq i32 %44, 0
  br i1 %.not55, label %48, label %45

45:                                               ; preds = %43
  %46 = tail call i64 @rb_str_cat_cstr(i64 noundef %.047, ptr noundef %.3) #22
  %47 = tail call i64 @rb_str_cat(i64 noundef %.047, ptr noundef nonnull @.str.86, i64 noundef 8) #22
  br label %48

48:                                               ; preds = %45, %43
  %.4 = phi ptr [ @.str.85, %45 ], [ %.3, %43 ]
  %49 = and i32 %2, 65536
  %.not56 = icmp eq i32 %49, 0
  br i1 %.not56, label %53, label %50

50:                                               ; preds = %48
  %51 = tail call i64 @rb_str_cat_cstr(i64 noundef %.047, ptr noundef %.4) #22
  %52 = tail call i64 @rb_str_cat(i64 noundef %.047, ptr noundef nonnull @.str.87, i64 noundef 16) #22
  br label %53

53:                                               ; preds = %50, %48
  %.5 = phi ptr [ @.str.85, %50 ], [ %.4, %48 ]
  %54 = and i32 %2, 1048576
  %.not57 = icmp eq i32 %54, 0
  br i1 %.not57, label %.thread66, label %55

55:                                               ; preds = %53
  %56 = tail call i64 @rb_str_cat_cstr(i64 noundef %.047, ptr noundef %.5) #22
  %57 = tail call i64 @rb_str_cat(i64 noundef %.047, ptr noundef nonnull @.str.77, i64 noundef 14) #22
  br label %.thread66

58:                                               ; preds = %.thread59
  %59 = tail call i64 @rb_str_cat(i64 noundef %.047, ptr noundef nonnull @.str.88, i64 noundef 13) #22
  br label %.thread66

.thread66:                                        ; preds = %53, %55, %19, %58
  ret void
}